; Function Attrs: mustprogress uwtable
define noundef i64 @_ZN4YAML15SingleDocParser14RegisterAnchorERKNSt7__cxx1112basic_stringIcSt11char_traitsIcESaIcEEE(ptr noundef nonnull align 8 dereferenceable(88) %this, ptr noundef nonnull align 8 dereferenceable(32) %name) local_unnamed_addr #4 align 2 {
entry:
  %call = tail call noundef zeroext i1 @_ZNKSt7__cxx1112basic_stringIcSt11char_traitsIcESaIcEE5emptyEv(ptr noundef nonnull align 8 dereferenceable(32) %name) #16
  br i1 %call, label %return, label %if.end

if.end:                                           ; preds = %entry
  %m_curAnchor = getelementptr inbounds i8, ptr %this, i64 80
  %0 = load i64, ptr %m_curAnchor, align 8
  %inc = add i64 %0, 1
  store i64 %inc, ptr %m_curAnchor, align 8
  %m_anchors = getelementptr inbounds i8, ptr %this, i64 32
  %call2 = tail call noundef nonnull align 8 dereferenceable(8) ptr @_ZNSt3mapINSt7__cxx1112basic_stringIcSt11char_traitsIcESaIcEEEmSt4lessIS5_ESaISt4pairIKS5_mEEEixERS9_(ptr noundef nonnull align 8 dereferenceable(48) %m_anchors, ptr noundef nonnull align 8 dereferenceable(32) %name)
  store i64 %inc, ptr %call2, align 8
  br label %return

return:                                           ; preds = %entry, %if.end
  %retval.0 = phi i64 [ %inc, %if.end ], [ 0, %entry ]
  ret i64 %retval.0
}